target datalayout = "e-m:e-p270:32:32-p271:32:32-p272:64:64-i64:64-i128:128-f80:128-n8:16:32:64-S128"
target triple = "x86_64-pc-linux-gnu"

@debug = external global ptr, align 8
@.str.85 = private unnamed_addr constant [7 x i8] c" %s-%s\00", align 1
@.str.86 = private unnamed_addr constant [2 x i8] c".\00", align 1
@.str.87 = private unnamed_addr constant [8 x i8] c"(%d %d)\00", align 1
@.str.88 = private unnamed_addr constant [8 x i8] c"{%d %d}\00", align 1

; Function Attrs: mustprogress nounwind uwtable
define internal noundef i32 @_ZL12debug_strcmpPcS_(ptr noundef %0, ptr noundef %1) #4 {
  %3 = alloca ptr, align 8
  %4 = alloca ptr, align 8
  store ptr %0, ptr %3, align 8, !tbaa !24
  store ptr %1, ptr %4, align 8, !tbaa !24
  %5 = load ptr, ptr @debug, align 8, !tbaa !25
  %6 = icmp ne ptr %5, null
  br i1 %6, label %7, label %12

7:                                                ; preds = %2
  %8 = load ptr, ptr @debug, align 8, !tbaa !25
  %9 = load ptr, ptr %3, align 8, !tbaa !24
  %10 = load ptr, ptr %4, align 8, !tbaa !24
  %11 = call i32 (ptr, ptr, ...) @fprintf(ptr noundef %8, ptr noundef @.str.85, ptr noundef %9, ptr noundef %10) #15
  br label %12

12:                                               ; preds = %7, %2
  %13 = load ptr, ptr %3, align 8, !tbaa !24
  %14 = load ptr, ptr %4, align 8, !tbaa !24
  %15 = call i32 @strcmp(ptr noundef %13, ptr noundef %14) #17
  ret i32 %15
}

; Function Attrs: inlinehint mustprogress nounwind uwtable
define linkonce_odr noundef nonnull align 4 dereferenceable(4) ptr @_ZSt3maxIiERKT_S2_S2_(ptr noundef nonnull align 4 dereferenceable(4) %0, ptr noundef nonnull align 4 dereferenceable(4) %1) #10 comdat {
  %3 = alloca ptr, align 8
  %4 = alloca ptr, align 8
  %5 = alloca ptr, align 8
  store ptr %0, ptr %4, align 8, !tbaa !54
  store ptr %1, ptr %5, align 8, !tbaa !54
  %6 = load ptr, ptr %4, align 8, !tbaa !54
  %7 = load i32, ptr %6, align 4, !tbaa !4
  %8 = load ptr, ptr %5, align 8, !tbaa !54
  %9 = load i32, ptr %8, align 4, !tbaa !4
  %10 = icmp slt i32 %7, %9
  br i1 %10, label %11, label %13

11:                                               ; preds = %2
  %12 = load ptr, ptr %5, align 8, !tbaa !54
  store ptr %12, ptr %3, align 8
  br label %15

13:                                               ; preds = %2
  %14 = load ptr, ptr %4, align 8, !tbaa !54
  store ptr %14, ptr %3, align 8
  br label %15

15:                                               ; preds = %13, %11
  %16 = load ptr, ptr %3, align 8
  ret ptr %16
}

; Function Attrs: mustprogress uwtable
define internal noundef i32 @_ZL28find_next_match_atoms_in_resPiPKiiPPPcS_S1_iS4_(ptr noundef %0, ptr noundef %1, i32 noundef %2, ptr noundef %3, ptr noundef %4, ptr noundef %5, i32 noundef %6, ptr noundef %7) #0 {
  %9 = alloca ptr, align 8
  %10 = alloca ptr, align 8
  %11 = alloca i32, align 4
  %12 = alloca ptr, align 8
  %13 = alloca ptr, align 8
  %14 = alloca ptr, align 8
  %15 = alloca i32, align 4
  %16 = alloca ptr, align 8
  %17 = alloca i32, align 4
  %18 = alloca i32, align 4
  %19 = alloca i32, align 4
  %20 = alloca i32, align 4
  %21 = alloca i8, align 1
  %22 = alloca i32, align 4
  %23 = alloca i32, align 4
  store ptr %0, ptr %9, align 8, !tbaa !54
  store ptr %1, ptr %10, align 8, !tbaa !54
  store i32 %2, ptr %11, align 4, !tbaa !4
  store ptr %3, ptr %12, align 8, !tbaa !106
  store ptr %4, ptr %13, align 8, !tbaa !54
  store ptr %5, ptr %14, align 8, !tbaa !54
  store i32 %6, ptr %15, align 4, !tbaa !4
  store ptr %7, ptr %16, align 8, !tbaa !106
  call void @llvm.lifetime.start.p0(i64 4, ptr %17) #15
  call void @llvm.lifetime.start.p0(i64 4, ptr %18) #15
  call void @llvm.lifetime.start.p0(i64 4, ptr %19) #15
  call void @llvm.lifetime.start.p0(i64 4, ptr %20) #15
  call void @llvm.lifetime.start.p0(i64 1, ptr %21) #15
  store i8 0, ptr %21, align 1, !tbaa !49
  store i32 -9368163, ptr %20, align 4, !tbaa !4
  call void @llvm.lifetime.start.p0(i64 4, ptr %22) #15
  %24 = load i32, ptr %11, align 4, !tbaa !4
  %25 = load ptr, ptr %9, align 8, !tbaa !54
  %26 = load i32, ptr %25, align 4, !tbaa !4
  %27 = sub nsw i32 %24, %26
  store i32 %27, ptr %22, align 4, !tbaa !4
  call void @llvm.lifetime.start.p0(i64 4, ptr %23) #15
  %28 = load i32, ptr %15, align 4, !tbaa !4
  %29 = load ptr, ptr %13, align 8, !tbaa !54
  %30 = load i32, ptr %29, align 4, !tbaa !4
  %31 = sub nsw i32 %28, %30
  store i32 %31, ptr %23, align 4, !tbaa !4
  %32 = call noundef nonnull align 4 dereferenceable(4) ptr @_ZSt3maxIiERKT_S2_S2_(ptr noundef nonnull align 4 dereferenceable(4) %22, ptr noundef nonnull align 4 dereferenceable(4) %23)
  %33 = load i32, ptr %32, align 4, !tbaa !4
  store i32 %33, ptr %19, align 4, !tbaa !4
  call void @llvm.lifetime.end.p0(i64 4, ptr %23) #15
  call void @llvm.lifetime.end.p0(i64 4, ptr %22) #15
  store i32 0, ptr %17, align 4, !tbaa !4
  store i32 0, ptr %18, align 4, !tbaa !4
  br label %34

34:                                               ; preds = %187, %8
  %35 = load i32, ptr %17, align 4, !tbaa !4
  %36 = load i32, ptr %19, align 4, !tbaa !4
  %37 = icmp slt i32 %35, %36
  br i1 %37, label %38, label %41

38:                                               ; preds = %34
  %39 = load i32, ptr %20, align 4, !tbaa !4
  %40 = icmp ne i32 %39, 0
  br label %41

41:                                               ; preds = %38, %34
  %42 = phi i1 [ false, %34 ], [ %40, %38 ]
  br i1 %42, label %43, label %190

43:                                               ; preds = %41
  %44 = load i32, ptr %17, align 4, !tbaa !4
  store i32 %44, ptr %18, align 4, !tbaa !4
  br label %45

45:                                               ; preds = %183, %43
  %46 = load i32, ptr %18, align 4, !tbaa !4
  %47 = load i32, ptr %19, align 4, !tbaa !4
  %48 = icmp slt i32 %46, %47
  br i1 %48, label %49, label %52

49:                                               ; preds = %45
  %50 = load i32, ptr %20, align 4, !tbaa !4
  %51 = icmp ne i32 %50, 0
  br label %52

52:                                               ; preds = %49, %45
  %53 = phi i1 [ false, %45 ], [ %51, %49 ]
  br i1 %53, label %54, label %186

54:                                               ; preds = %52
  %55 = load i32, ptr %17, align 4, !tbaa !4
  %56 = icmp ne i32 %55, 0
  br i1 %56, label %60, label %57

57:                                               ; preds = %54
  %58 = load i32, ptr %18, align 4, !tbaa !4
  %59 = icmp ne i32 %58, 0
  br i1 %59, label %60, label %182

60:                                               ; preds = %57, %54
  %61 = load ptr, ptr @debug, align 8, !tbaa !25
  %62 = icmp ne ptr %61, null
  br i1 %62, label %63, label %66

63:                                               ; preds = %60
  %64 = load ptr, ptr @debug, align 8, !tbaa !25
  %65 = call i32 (ptr, ptr, ...) @fprintf(ptr noundef %64, ptr noundef @.str.86) #15
  br label %66

66:                                               ; preds = %63, %60
  store i32 -9368163, ptr %20, align 4, !tbaa !4
  %67 = load ptr, ptr %9, align 8, !tbaa !54
  %68 = load i32, ptr %67, align 4, !tbaa !4
  %69 = load i32, ptr %17, align 4, !tbaa !4
  %70 = add nsw i32 %68, %69
  %71 = load i32, ptr %11, align 4, !tbaa !4
  %72 = icmp slt i32 %70, %71
  br i1 %72, label %73, label %122

73:                                               ; preds = %66
  %74 = load ptr, ptr %13, align 8, !tbaa !54
  %75 = load i32, ptr %74, align 4, !tbaa !4
  %76 = load i32, ptr %18, align 4, !tbaa !4
  %77 = add nsw i32 %75, %76
  %78 = load i32, ptr %15, align 4, !tbaa !4
  %79 = icmp slt i32 %77, %78
  br i1 %79, label %80, label %122

80:                                               ; preds = %73
  store i8 1, ptr %21, align 1, !tbaa !49
  %81 = load ptr, ptr %12, align 8, !tbaa !106
  %82 = load ptr, ptr %10, align 8, !tbaa !54
  %83 = load ptr, ptr %9, align 8, !tbaa !54
  %84 = load i32, ptr %83, align 4, !tbaa !4
  %85 = load i32, ptr %17, align 4, !tbaa !4
  %86 = add nsw i32 %84, %85
  %87 = sext i32 %86 to i64
  %88 = getelementptr inbounds i32, ptr %82, i64 %87
  %89 = load i32, ptr %88, align 4, !tbaa !4
  %90 = sext i32 %89 to i64
  %91 = getelementptr inbounds ptr, ptr %81, i64 %90
  %92 = load ptr, ptr %91, align 8, !tbaa !8
  %93 = load ptr, ptr %92, align 8, !tbaa !24
  %94 = load ptr, ptr %16, align 8, !tbaa !106
  %95 = load ptr, ptr %14, align 8, !tbaa !54
  %96 = load ptr, ptr %13, align 8, !tbaa !54
  %97 = load i32, ptr %96, align 4, !tbaa !4
  %98 = load i32, ptr %18, align 4, !tbaa !4
  %99 = add nsw i32 %97, %98
  %100 = sext i32 %99 to i64
  %101 = getelementptr inbounds i32, ptr %95, i64 %100
  %102 = load i32, ptr %101, align 4, !tbaa !4
  %103 = sext i32 %102 to i64
  %104 = getelementptr inbounds ptr, ptr %94, i64 %103
  %105 = load ptr, ptr %104, align 8, !tbaa !8
  %106 = load ptr, ptr %105, align 8, !tbaa !24
  %107 = call noundef i32 @_ZL12debug_strcmpPcS_(ptr noundef %93, ptr noundef %106)
  store i32 %107, ptr %20, align 4, !tbaa !4
  %108 = load ptr, ptr @debug, align 8, !tbaa !25
  %109 = icmp ne ptr %108, null
  br i1 %109, label %110, label %121

110:                                              ; preds = %80
  %111 = load ptr, ptr @debug, align 8, !tbaa !25
  %112 = load ptr, ptr %9, align 8, !tbaa !54
  %113 = load i32, ptr %112, align 4, !tbaa !4
  %114 = load i32, ptr %17, align 4, !tbaa !4
  %115 = add nsw i32 %113, %114
  %116 = load ptr, ptr %13, align 8, !tbaa !54
  %117 = load i32, ptr %116, align 4, !tbaa !4
  %118 = load i32, ptr %18, align 4, !tbaa !4
  %119 = add nsw i32 %117, %118
  %120 = call i32 (ptr, ptr, ...) @fprintf(ptr noundef %111, ptr noundef @.str.87, i32 noundef %115, i32 noundef %119) #15
  br label %121

121:                                              ; preds = %110, %80
  br label %122

122:                                              ; preds = %121, %73, %66
  %123 = load i32, ptr %20, align 4, !tbaa !4
  %124 = icmp ne i32 %123, 0
  br i1 %124, label %125, label %181

125:                                              ; preds = %122
  %126 = load ptr, ptr %9, align 8, !tbaa !54
  %127 = load i32, ptr %126, align 4, !tbaa !4
  %128 = load i32, ptr %18, align 4, !tbaa !4
  %129 = add nsw i32 %127, %128
  %130 = load i32, ptr %11, align 4, !tbaa !4
  %131 = icmp slt i32 %129, %130
  br i1 %131, label %132, label %181

132:                                              ; preds = %125
  %133 = load ptr, ptr %13, align 8, !tbaa !54
  %134 = load i32, ptr %133, align 4, !tbaa !4
  %135 = load i32, ptr %17, align 4, !tbaa !4
  %136 = add nsw i32 %134, %135
  %137 = load i32, ptr %15, align 4, !tbaa !4
  %138 = icmp slt i32 %136, %137
  br i1 %138, label %139, label %181

139:                                              ; preds = %132
  store i8 0, ptr %21, align 1, !tbaa !49
  %140 = load ptr, ptr %12, align 8, !tbaa !106
  %141 = load ptr, ptr %10, align 8, !tbaa !54
  %142 = load ptr, ptr %9, align 8, !tbaa !54
  %143 = load i32, ptr %142, align 4, !tbaa !4
  %144 = load i32, ptr %18, align 4, !tbaa !4
  %145 = add nsw i32 %143, %144
  %146 = sext i32 %145 to i64
  %147 = getelementptr inbounds i32, ptr %141, i64 %146
  %148 = load i32, ptr %147, align 4, !tbaa !4
  %149 = sext i32 %148 to i64
  %150 = getelementptr inbounds ptr, ptr %140, i64 %149
  %151 = load ptr, ptr %150, align 8, !tbaa !8
  %152 = load ptr, ptr %151, align 8, !tbaa !24
  %153 = load ptr, ptr %16, align 8, !tbaa !106
  %154 = load ptr, ptr %14, align 8, !tbaa !54
  %155 = load ptr, ptr %13, align 8, !tbaa !54
  %156 = load i32, ptr %155, align 4, !tbaa !4
  %157 = load i32, ptr %17, align 4, !tbaa !4
  %158 = add nsw i32 %156, %157
  %159 = sext i32 %158 to i64
  %160 = getelementptr inbounds i32, ptr %154, i64 %159
  %161 = load i32, ptr %160, align 4, !tbaa !4
  %162 = sext i32 %161 to i64
  %163 = getelementptr inbounds ptr, ptr %153, i64 %162
  %164 = load ptr, ptr %163, align 8, !tbaa !8
  %165 = load ptr, ptr %164, align 8, !tbaa !24
  %166 = call noundef i32 @_ZL12debug_strcmpPcS_(ptr noundef %152, ptr noundef %165)
  store i32 %166, ptr %20, align 4, !tbaa !4
  %167 = load ptr, ptr @debug, align 8, !tbaa !25
  %168 = icmp ne ptr %167, null
  br i1 %168, label %169, label %180

169:                                              ; preds = %139
  %170 = load ptr, ptr @debug, align 8, !tbaa !25
  %171 = load ptr, ptr %9, align 8, !tbaa !54
  %172 = load i32, ptr %171, align 4, !tbaa !4
  %173 = load i32, ptr %18, align 4, !tbaa !4
  %174 = add nsw i32 %172, %173
  %175 = load ptr, ptr %13, align 8, !tbaa !54
  %176 = load i32, ptr %175, align 4, !tbaa !4
  %177 = load i32, ptr %17, align 4, !tbaa !4
  %178 = add nsw i32 %176, %177
  %179 = call i32 (ptr, ptr, ...) @fprintf(ptr noundef %170, ptr noundef @.str.87, i32 noundef %174, i32 noundef %178) #15
  br label %180

180:                                              ; preds = %169, %139
  br label %181

181:                                              ; preds = %180, %132, %125, %122
  br label %182

182:                                              ; preds = %181, %57
  br label %183

183:                                              ; preds = %182
  %184 = load i32, ptr %18, align 4, !tbaa !4
  %185 = add nsw i32 %184, 1
  store i32 %185, ptr %18, align 4, !tbaa !4
  br label %45, !llvm.loop !182

186:                                              ; preds = %52
  br label %187

187:                                              ; preds = %186
  %188 = load i32, ptr %17, align 4, !tbaa !4
  %189 = add nsw i32 %188, 1
  store i32 %189, ptr %17, align 4, !tbaa !4
  br label %34, !llvm.loop !183

190:                                              ; preds = %41
  %191 = load i32, ptr %17, align 4, !tbaa !4
  %192 = add nsw i32 %191, -1
  store i32 %192, ptr %17, align 4, !tbaa !4
  %193 = load i32, ptr %18, align 4, !tbaa !4
  %194 = add nsw i32 %193, -1
  store i32 %194, ptr %18, align 4, !tbaa !4
  %195 = load i32, ptr %20, align 4, !tbaa !4
  %196 = icmp eq i32 %195, 0
  br i1 %196, label %197, label %247

197:                                              ; preds = %190
  %198 = load ptr, ptr @debug, align 8, !tbaa !25
  %199 = icmp ne ptr %198, null
  br i1 %199, label %200, label %225

200:                                              ; preds = %197
  %201 = load ptr, ptr @debug, align 8, !tbaa !25
  %202 = load ptr, ptr %9, align 8, !tbaa !54
  %203 = load i32, ptr %202, align 4, !tbaa !4
  %204 = load i8, ptr %21, align 1, !tbaa !49, !range !50, !noundef !51
  %205 = trunc i8 %204 to i1
  br i1 %205, label %206, label %208

206:                                              ; preds = %200
  %207 = load i32, ptr %17, align 4, !tbaa !4
  br label %210

208:                                              ; preds = %200
  %209 = load i32, ptr %18, align 4, !tbaa !4
  br label %210

210:                                              ; preds = %208, %206
  %211 = phi i32 [ %207, %206 ], [ %209, %208 ]
  %212 = add nsw i32 %203, %211
  %213 = load ptr, ptr %13, align 8, !tbaa !54
  %214 = load i32, ptr %213, align 4, !tbaa !4
  %215 = load i8, ptr %21, align 1, !tbaa !49, !range !50, !noundef !51
  %216 = trunc i8 %215 to i1
  br i1 %216, label %217, label %219

217:                                              ; preds = %210
  %218 = load i32, ptr %18, align 4, !tbaa !4
  br label %221

219:                                              ; preds = %210
  %220 = load i32, ptr %17, align 4, !tbaa !4
  br label %221

221:                                              ; preds = %219, %217
  %222 = phi i32 [ %218, %217 ], [ %220, %219 ]
  %223 = add nsw i32 %214, %222
  %224 = call i32 (ptr, ptr, ...) @fprintf(ptr noundef %201, ptr noundef @.str.88, i32 noundef %212, i32 noundef %223) #15
  br label %225

225:                                              ; preds = %221, %197
  %226 = load i8, ptr %21, align 1, !tbaa !49, !range !50, !noundef !51
  %227 = trunc i8 %226 to i1
  br i1 %227, label %228, label %237

228:                                              ; preds = %225
  %229 = load i32, ptr %17, align 4, !tbaa !4
  %230 = load ptr, ptr %9, align 8, !tbaa !54
  %231 = load i32, ptr %230, align 4, !tbaa !4
  %232 = add nsw i32 %231, %229
  store i32 %232, ptr %230, align 4, !tbaa !4
  %233 = load i32, ptr %18, align 4, !tbaa !4
  %234 = load ptr, ptr %13, align 8, !tbaa !54
  %235 = load i32, ptr %234, align 4, !tbaa !4
  %236 = add nsw i32 %235, %233
  store i32 %236, ptr %234, align 4, !tbaa !4
  br label %246

237:                                              ; preds = %225
  %238 = load i32, ptr %18, align 4, !tbaa !4
  %239 = load ptr, ptr %9, align 8, !tbaa !54
  %240 = load i32, ptr %239, align 4, !tbaa !4
  %241 = add nsw i32 %240, %238
  store i32 %241, ptr %239, align 4, !tbaa !4
  %242 = load i32, ptr %17, align 4, !tbaa !4
  %243 = load ptr, ptr %13, align 8, !tbaa !54
  %244 = load i32, ptr %243, align 4, !tbaa !4
  %245 = add nsw i32 %244, %242
  store i32 %245, ptr %243, align 4, !tbaa !4
  br label %246

246:                                              ; preds = %237, %228
  br label %247

247:                                              ; preds = %246, %190
  %248 = load i32, ptr %20, align 4, !tbaa !4
  call void @llvm.lifetime.end.p0(i64 1, ptr %21) #15
  call void @llvm.lifetime.end.p0(i64 4, ptr %20) #15
  call void @llvm.lifetime.end.p0(i64 4, ptr %19) #15
  call void @llvm.lifetime.end.p0(i64 4, ptr %18) #15
  call void @llvm.lifetime.end.p0(i64 4, ptr %17) #15
  ret i32 %248
}