; Function Attrs: mustprogress nofree nounwind uwtable
define internal fastcc noundef i32 @_ZL28find_next_match_atoms_in_resPiPKiiPPPcS_S1_iS4_(ptr noundef nonnull captures(none) %0, ptr noundef readonly captures(none) %1, i32 noundef %2, ptr noundef readonly captures(none) %3, ptr noundef nonnull captures(none) %4, ptr noundef readonly captures(none) %5, i32 noundef %6, ptr noundef readonly captures(none) %7) unnamed_addr #13 {
  %9 = load i32, ptr %0, align 4, !tbaa !4
  %10 = sub nsw i32 %2, %9
  %11 = load i32, ptr %4, align 4, !tbaa !4
  %12 = sub nsw i32 %6, %11
  %.sroa.speculated = tail call i32 @llvm.smax.i32(i32 %10, i32 %12)
  %13 = icmp sgt i32 %.sroa.speculated, 0
  br i1 %13, label %.preheader, label %._crit_edge.thread

.preheader:                                       ; preds = %8, %90
  %.0113 = phi i8 [ %.3, %90 ], [ 0, %8 ]
  %.073112 = phi i32 [ %.376, %90 ], [ -9368163, %8 ]
  %.077111 = phi i32 [ %91, %90 ], [ 0, %8 ]
  br label %14

14:                                               ; preds = %.preheader, %85
  %.1110 = phi i8 [ %.0113, %.preheader ], [ %.3, %85 ]
  %.174109 = phi i32 [ %.073112, %.preheader ], [ %.376, %85 ]
  %.179106 = phi i32 [ %.077111, %.preheader ], [ %86, %85 ]
  %15 = or i32 %.179106, %.077111
  %or.cond.not = icmp eq i32 %15, 0
  br i1 %or.cond.not, label %85, label %16

16:                                               ; preds = %14
  %17 = load ptr, ptr @debug, align 8, !tbaa !22
  %.not89 = icmp eq ptr %17, null
  br i1 %.not89, label %19, label %18

18:                                               ; preds = %16
  %fputc = tail call i32 @fputc(i32 46, ptr nonnull %17)
  br label %19

19:                                               ; preds = %18, %16
  %20 = load i32, ptr %0, align 4, !tbaa !4
  %21 = add nsw i32 %20, %.077111
  %22 = icmp slt i32 %21, %2
  br i1 %22, label %23, label %.thread

23:                                               ; preds = %19
  %24 = load i32, ptr %4, align 4, !tbaa !4
  %25 = add nsw i32 %24, %.179106
  %26 = icmp slt i32 %25, %6
  br i1 %26, label %27, label %.thread

27:                                               ; preds = %23
  %28 = sext i32 %21 to i64
  %29 = getelementptr inbounds i32, ptr %1, i64 %28
  %30 = load i32, ptr %29, align 4, !tbaa !4
  %31 = sext i32 %30 to i64
  %32 = getelementptr inbounds ptr, ptr %3, i64 %31
  %33 = load ptr, ptr %32, align 8, !tbaa !68
  %34 = load ptr, ptr %33, align 8, !tbaa !21
  %35 = sext i32 %25 to i64
  %36 = getelementptr inbounds i32, ptr %5, i64 %35
  %37 = load i32, ptr %36, align 4, !tbaa !4
  %38 = sext i32 %37 to i64
  %39 = getelementptr inbounds ptr, ptr %7, i64 %38
  %40 = load ptr, ptr %39, align 8, !tbaa !68
  %41 = load ptr, ptr %40, align 8, !tbaa !21
  %42 = load ptr, ptr @debug, align 8, !tbaa !22
  %.not.i = icmp eq ptr %42, null
  br i1 %.not.i, label %_ZL12debug_strcmpPcS_.exit.thread, label %_ZL12debug_strcmpPcS_.exit

_ZL12debug_strcmpPcS_.exit.thread:                ; preds = %27
  %43 = tail call noundef i32 @strcmp(ptr noundef nonnull dereferenceable(1) %34, ptr noundef nonnull dereferenceable(1) %41) #23
  br label %52

_ZL12debug_strcmpPcS_.exit:                       ; preds = %27
  %44 = tail call i32 (ptr, ptr, ...) @fprintf(ptr noundef nonnull %42, ptr noundef nonnull @.str.85, ptr noundef %34, ptr noundef %41) #18
  %.pr = load ptr, ptr @debug, align 8, !tbaa !22
  %45 = tail call noundef i32 @strcmp(ptr noundef nonnull dereferenceable(1) %34, ptr noundef nonnull dereferenceable(1) %41) #23
  %.not90 = icmp eq ptr %.pr, null
  br i1 %.not90, label %52, label %46

46:                                               ; preds = %_ZL12debug_strcmpPcS_.exit
  %47 = load i32, ptr %0, align 4, !tbaa !4
  %48 = add nsw i32 %47, %.077111
  %49 = load i32, ptr %4, align 4, !tbaa !4
  %50 = add nsw i32 %49, %.179106
  %51 = tail call i32 (ptr, ptr, ...) @fprintf(ptr noundef nonnull %.pr, ptr noundef nonnull @.str.87, i32 noundef %48, i32 noundef %50) #18
  br label %52

52:                                               ; preds = %_ZL12debug_strcmpPcS_.exit.thread, %_ZL12debug_strcmpPcS_.exit, %46
  %.275 = phi i32 [ %45, %46 ], [ %45, %_ZL12debug_strcmpPcS_.exit ], [ %43, %_ZL12debug_strcmpPcS_.exit.thread ]
  %.not91 = icmp eq i32 %.275, 0
  br i1 %.not91, label %._crit_edge.thread134, label %..thread_crit_edge

..thread_crit_edge:                               ; preds = %52
  %.pre = load i32, ptr %0, align 4, !tbaa !4
  br label %.thread

.thread:                                          ; preds = %..thread_crit_edge, %19, %23
  %53 = phi i32 [ %.pre, %..thread_crit_edge ], [ %20, %23 ], [ %20, %19 ]
  %.2103 = phi i8 [ 1, %..thread_crit_edge ], [ %.1110, %23 ], [ %.1110, %19 ]
  %.275102 = phi i32 [ %.275, %..thread_crit_edge ], [ -9368163, %23 ], [ -9368163, %19 ]
  %54 = add nsw i32 %53, %.179106
  %55 = icmp slt i32 %54, %2
  br i1 %55, label %56, label %85

56:                                               ; preds = %.thread
  %57 = load i32, ptr %4, align 4, !tbaa !4
  %58 = add nsw i32 %57, %.077111
  %59 = icmp slt i32 %58, %6
  br i1 %59, label %60, label %85

60:                                               ; preds = %56
  %61 = sext i32 %54 to i64
  %62 = getelementptr inbounds i32, ptr %1, i64 %61
  %63 = load i32, ptr %62, align 4, !tbaa !4
  %64 = sext i32 %63 to i64
  %65 = getelementptr inbounds ptr, ptr %3, i64 %64
  %66 = load ptr, ptr %65, align 8, !tbaa !68
  %67 = load ptr, ptr %66, align 8, !tbaa !21
  %68 = sext i32 %58 to i64
  %69 = getelementptr inbounds i32, ptr %5, i64 %68
  %70 = load i32, ptr %69, align 4, !tbaa !4
  %71 = sext i32 %70 to i64
  %72 = getelementptr inbounds ptr, ptr %7, i64 %71
  %73 = load ptr, ptr %72, align 8, !tbaa !68
  %74 = load ptr, ptr %73, align 8, !tbaa !21
  %75 = load ptr, ptr @debug, align 8, !tbaa !22
  %.not.i93 = icmp eq ptr %75, null
  br i1 %.not.i93, label %_ZL12debug_strcmpPcS_.exit94.thread, label %_ZL12debug_strcmpPcS_.exit94

_ZL12debug_strcmpPcS_.exit94.thread:              ; preds = %60
  %76 = tail call noundef i32 @strcmp(ptr noundef nonnull dereferenceable(1) %67, ptr noundef nonnull dereferenceable(1) %74) #23
  br label %85

_ZL12debug_strcmpPcS_.exit94:                     ; preds = %60
  %77 = tail call i32 (ptr, ptr, ...) @fprintf(ptr noundef nonnull %75, ptr noundef nonnull @.str.85, ptr noundef %67, ptr noundef %74) #18
  %.pr104 = load ptr, ptr @debug, align 8, !tbaa !22
  %78 = tail call noundef i32 @strcmp(ptr noundef nonnull dereferenceable(1) %67, ptr noundef nonnull dereferenceable(1) %74) #23
  %.not92 = icmp eq ptr %.pr104, null
  br i1 %.not92, label %85, label %79

79:                                               ; preds = %_ZL12debug_strcmpPcS_.exit94
  %80 = load i32, ptr %0, align 4, !tbaa !4
  %81 = add nsw i32 %80, %.179106
  %82 = load i32, ptr %4, align 4, !tbaa !4
  %83 = add nsw i32 %82, %.077111
  %84 = tail call i32 (ptr, ptr, ...) @fprintf(ptr noundef nonnull %.pr104, ptr noundef nonnull @.str.87, i32 noundef %81, i32 noundef %83) #18
  br label %85

85:                                               ; preds = %_ZL12debug_strcmpPcS_.exit94.thread, %14, %_ZL12debug_strcmpPcS_.exit94, %79, %56, %.thread
  %.376 = phi i32 [ %78, %79 ], [ %78, %_ZL12debug_strcmpPcS_.exit94 ], [ %.275102, %56 ], [ %.275102, %.thread ], [ %.174109, %14 ], [ %76, %_ZL12debug_strcmpPcS_.exit94.thread ]
  %.3 = phi i8 [ 0, %79 ], [ 0, %_ZL12debug_strcmpPcS_.exit94 ], [ %.2103, %56 ], [ %.2103, %.thread ], [ %.1110, %14 ], [ 0, %_ZL12debug_strcmpPcS_.exit94.thread ]
  %86 = add nuw nsw i32 %.179106, 1
  %87 = icmp slt i32 %86, %.sroa.speculated
  %88 = icmp ne i32 %.376, 0
  %89 = select i1 %87, i1 %88, i1 false
  br i1 %89, label %14, label %90, !llvm.loop !116

90:                                               ; preds = %85
  %91 = add nuw nsw i32 %.077111, 1
  %92 = icmp slt i32 %91, %.sroa.speculated
  %93 = select i1 %92, i1 %88, i1 false
  br i1 %93, label %.preheader, label %._crit_edge, !llvm.loop !117

._crit_edge:                                      ; preds = %90
  %94 = trunc nuw i8 %.3 to i1
  %95 = icmp eq i32 %.376, 0
  br i1 %95, label %._crit_edge.thread134, label %._crit_edge.thread

._crit_edge.thread134:                            ; preds = %52, %._crit_edge
  %96 = phi i1 [ %94, %._crit_edge ], [ true, %52 ]
  %97 = load ptr, ptr @debug, align 8, !tbaa !22
  %.not = icmp eq ptr %97, null
  br i1 %.not, label %._crit_edge117, label %98

98:                                               ; preds = %._crit_edge.thread134
  %99 = load i32, ptr %0, align 4, !tbaa !4
  %100 = select i1 %96, i32 %.077111, i32 %.179106
  %101 = add nsw i32 %99, %100
  %102 = load i32, ptr %4, align 4, !tbaa !4
  %103 = select i1 %96, i32 %.179106, i32 %.077111
  %104 = add nsw i32 %102, %103
  %105 = tail call i32 (ptr, ptr, ...) @fprintf(ptr noundef nonnull %97, ptr noundef nonnull @.str.88, i32 noundef %101, i32 noundef %104) #18
  br label %._crit_edge117

._crit_edge117:                                   ; preds = %._crit_edge.thread134, %98
  %106 = load i32, ptr %0, align 4, !tbaa !4
  %.077111141..179106139 = select i1 %96, i32 %.077111, i32 %.179106
  %.179106139..077111141 = select i1 %96, i32 %.179106, i32 %.077111
  %107 = add nsw i32 %106, %.077111141..179106139
  store i32 %107, ptr %0, align 4, !tbaa !4
  %108 = load i32, ptr %4, align 4, !tbaa !4
  %109 = add nsw i32 %108, %.179106139..077111141
  store i32 %109, ptr %4, align 4, !tbaa !4
  br label %._crit_edge.thread

._crit_edge.thread:                               ; preds = %._crit_edge117, %8, %._crit_edge
  %.073.lcssa133 = phi i32 [ %.376, %._crit_edge ], [ -9368163, %8 ], [ 0, %._crit_edge117 ]
  ret i32 %.073.lcssa133
}